target datalayout = "e-m:e-p270:32:32-p271:32:32-p272:64:64-i64:64-i128:128-f80:128-n8:16:32:64-S128"
target triple = "x86_64-pc-linux-gnu"

%struct.uv_udp_s = type { ptr, ptr, i32, ptr, %struct.uv__queue, %union.anon, ptr, i32, i64, i64, ptr, ptr, %struct.uv__io_s, %struct.uv__queue, %struct.uv__queue }
%union.anon = type { [4 x ptr] }
%struct.uv__io_s = type { ptr, %struct.uv__queue, %struct.uv__queue, i32, i32, i32 }
%struct.uv__queue = type { ptr, ptr }
%union.__CONST_SOCKADDR_ARG = type { ptr }
%struct.sockaddr = type { i16, [14 x i8] }

; Function Attrs: nounwind uwtable
define hidden i32 @uv__udp_disconnect(ptr noundef %0) #0 {
  %2 = alloca i32, align 4
  %3 = alloca ptr, align 8
  %4 = alloca i32, align 4
  %5 = alloca %struct.sockaddr, align 2
  %6 = alloca %union.__CONST_SOCKADDR_ARG, align 8
  %7 = alloca i32, align 4
  store ptr %0, ptr %3, align 8
  call void @llvm.lifetime.start.p0(i64 4, ptr %4) #10
  call void @llvm.lifetime.start.p0(i64 16, ptr %5) #10
  call void @llvm.memset.p0.i64(ptr align 2 %5, i8 0, i64 16, i1 false)
  %8 = getelementptr inbounds nuw %struct.sockaddr, ptr %5, i32 0, i32 0
  store i16 0, ptr %8, align 2
  br label %9

9:                                                ; preds = %25, %1
  %10 = call ptr @__errno_location() #11
  store i32 0, ptr %10, align 4
  %11 = load ptr, ptr %3, align 8
  %12 = getelementptr inbounds nuw %struct.uv_udp_s, ptr %11, i32 0, i32 12
  %13 = getelementptr inbounds nuw %struct.uv__io_s, ptr %12, i32 0, i32 5
  %14 = load i32, ptr %13, align 8
  store ptr %5, ptr %6, align 8
  %15 = getelementptr inbounds nuw %union.__CONST_SOCKADDR_ARG, ptr %6, i32 0, i32 0
  %16 = load ptr, ptr %15, align 8
  %17 = call i32 @connect(i32 noundef %14, ptr %16, i32 noundef 16)
  store i32 %17, ptr %4, align 4
  br label %18

18:                                               ; preds = %9
  %19 = load i32, ptr %4, align 4
  %20 = icmp eq i32 %19, -1
  br i1 %20, label %21, label %25

21:                                               ; preds = %18
  %22 = call ptr @__errno_location() #11
  %23 = load i32, ptr %22, align 4
  %24 = icmp eq i32 %23, 4
  br label %25

25:                                               ; preds = %21, %18
  %26 = phi i1 [ false, %18 ], [ %24, %21 ]
  br i1 %26, label %9, label %27

27:                                               ; preds = %25
  %28 = load i32, ptr %4, align 4
  %29 = icmp eq i32 %28, -1
  br i1 %29, label %30, label %34

30:                                               ; preds = %27
  %31 = call ptr @__errno_location() #11
  %32 = load i32, ptr %31, align 4
  %33 = sub nsw i32 0, %32
  store i32 %33, ptr %2, align 4
  store i32 1, ptr %7, align 4
  br label %39

34:                                               ; preds = %27
  %35 = load ptr, ptr %3, align 8
  %36 = getelementptr inbounds nuw %struct.uv_udp_s, ptr %35, i32 0, i32 7
  %37 = load i32, ptr %36, align 8
  %38 = and i32 %37, -33554433
  store i32 %38, ptr %36, align 8
  store i32 0, ptr %2, align 4
  store i32 1, ptr %7, align 4
  br label %39

39:                                               ; preds = %34, %30
  call void @llvm.lifetime.end.p0(i64 16, ptr %5) #10
  call void @llvm.lifetime.end.p0(i64 4, ptr %4) #10
  %40 = load i32, ptr %2, align 4
  ret i32 %40
}