; Function Attrs: nounwind uwtable
define hidden range(i32 -2147483647, -2147483648) i32 @uv__udp_disconnect(ptr noundef captures(none) %0) local_unnamed_addr #0 {
  %2 = alloca %struct.sockaddr, align 2
  call void @llvm.lifetime.start.p0(i64 16, ptr nonnull %2) #10
  %3 = tail call ptr @__errno_location() #11
  %4 = getelementptr inbounds nuw i8, ptr %0, i64 176
  call void @llvm.memset.p0.i64(ptr noundef nonnull align 2 dereferenceable(16) %2, i8 0, i64 16, i1 false)
  br label %5

5:                                                ; preds = %9, %1
  store i32 0, ptr %3, align 4
  %6 = load i32, ptr %4, align 8
  %7 = call i32 @connect(i32 noundef %6, ptr nonnull %2, i32 noundef 16) #10
  %8 = icmp eq i32 %7, -1
  br i1 %8, label %9, label %.critedge4

9:                                                ; preds = %5
  %10 = load i32, ptr %3, align 4
  %11 = icmp eq i32 %10, 4
  br i1 %11, label %5, label %.critedge

.critedge:                                        ; preds = %9
  %12 = sub nsw i32 0, %10
  br label %16

.critedge4:                                       ; preds = %5
  %13 = getelementptr inbounds nuw i8, ptr %0, i64 88
  %14 = load i32, ptr %13, align 8
  %15 = and i32 %14, -33554433
  store i32 %15, ptr %13, align 8
  br label %16

16:                                               ; preds = %.critedge4, %.critedge
  %.0 = phi i32 [ %12, %.critedge ], [ 0, %.critedge4 ]
  call void @llvm.lifetime.end.p0(i64 16, ptr nonnull %2) #10
  ret i32 %.0
}